; ModuleID = 'source-C-CXX/61/3300.c'
source_filename = "source-C-CXX/61/3300.c"
target datalayout = "e-m:e-p270:32:32-p271:32:32-p272:64:64-i64:64-f80:128-n8:16:32:64-S128"
target triple = "x86_64-pc-linux-gnu"

@.str = private unnamed_addr constant [3 x i8] c"%s\00", align 1

; Function Attrs: nounwind sspstrong uwtable
define dso_local i32 @main() local_unnamed_addr #0 {
  %1 = alloca [100 x i8], align 16
  %2 = alloca [100 x i8], align 16
  %3 = getelementptr inbounds [100 x i8], [100 x i8]* %1, i64 0, i64 0
  call void @llvm.lifetime.start.p0i8(i64 100, i8* nonnull %3) #7
  %4 = getelementptr inbounds [100 x i8], [100 x i8]* %2, i64 0, i64 0
  call void @llvm.lifetime.start.p0i8(i64 100, i8* nonnull %4) #7
  call void @llvm.memset.p0i8.i64(i8* noundef nonnull align 16 dereferenceable(100) %4, i8 0, i64 100, i1 false)
  %5 = call i32 (i8*, ...) bitcast (i32 (...)* @gets to i32 (i8*, ...)*)(i8* nonnull %3) #7
  %6 = call i64 @strlen(i8* noundef nonnull %3) #8
  %7 = trunc i64 %6 to i32
  %8 = icmp sgt i32 %7, 1
  br i1 %8, label %9, label %130

9:                                                ; preds = %0
  %10 = add nsw i32 %7, -1
  br label %11

11:                                               ; preds = %9, %124
  %12 = phi i32 [ %128, %124 ], [ %10, %9 ]
  %13 = phi i32 [ %126, %124 ], [ %7, %9 ]
  %14 = phi i32 [ %127, %124 ], [ 0, %9 ]
  %15 = sext i32 %14 to i64
  %16 = getelementptr inbounds [100 x i8], [100 x i8]* %1, i64 0, i64 %15
  %17 = load i8, i8* %16, align 1, !tbaa !5
  %18 = icmp eq i8 %17, 32
  br i1 %18, label %19, label %124

19:                                               ; preds = %11
  %20 = add nsw i32 %14, 1
  %21 = sext i32 %20 to i64
  %22 = getelementptr inbounds [100 x i8], [100 x i8]* %1, i64 0, i64 %21
  %23 = load i8, i8* %22, align 1, !tbaa !5
  %24 = icmp eq i8 %23, 32
  br i1 %24, label %25, label %124

25:                                               ; preds = %19
  %26 = icmp slt i32 %14, %12
  br i1 %26, label %27, label %124

27:                                               ; preds = %25
  %28 = sext i32 %12 to i64
  %29 = sub nsw i64 %28, %15
  %30 = icmp ult i64 %29, 8
  br i1 %30, label %115, label %31

31:                                               ; preds = %27
  %32 = icmp ult i64 %29, 32
  br i1 %32, label %95, label %33

33:                                               ; preds = %31
  %34 = and i64 %29, -32
  %35 = add nsw i64 %34, -32
  %36 = lshr exact i64 %35, 5
  %37 = add nuw nsw i64 %36, 1
  %38 = and i64 %37, 1
  %39 = icmp eq i64 %35, 0
  br i1 %39, label %73, label %40

40:                                               ; preds = %33
  %41 = and i64 %37, 1152921504606846974
  br label %42

42:                                               ; preds = %42, %40
  %43 = phi i64 [ 0, %40 ], [ %70, %42 ]
  %44 = phi i64 [ %41, %40 ], [ %71, %42 ]
  %45 = add i64 %43, %15
  %46 = add nsw i64 %45, 1
  %47 = getelementptr inbounds [100 x i8], [100 x i8]* %1, i64 0, i64 %46
  %48 = bitcast i8* %47 to <16 x i8>*
  %49 = load <16 x i8>, <16 x i8>* %48, align 1, !tbaa !5
  %50 = getelementptr inbounds i8, i8* %47, i64 16
  %51 = bitcast i8* %50 to <16 x i8>*
  %52 = load <16 x i8>, <16 x i8>* %51, align 1, !tbaa !5
  %53 = getelementptr inbounds [100 x i8], [100 x i8]* %1, i64 0, i64 %45
  %54 = bitcast i8* %53 to <16 x i8>*
  store <16 x i8> %49, <16 x i8>* %54, align 1, !tbaa !5
  %55 = getelementptr inbounds i8, i8* %53, i64 16
  %56 = bitcast i8* %55 to <16 x i8>*
  store <16 x i8> %52, <16 x i8>* %56, align 1, !tbaa !5
  %57 = or i64 %43, 32
  %58 = add i64 %57, %15
  %59 = add nsw i64 %58, 1
  %60 = getelementptr inbounds [100 x i8], [100 x i8]* %1, i64 0, i64 %59
  %61 = bitcast i8* %60 to <16 x i8>*
  %62 = load <16 x i8>, <16 x i8>* %61, align 1, !tbaa !5
  %63 = getelementptr inbounds i8, i8* %60, i64 16
  %64 = bitcast i8* %63 to <16 x i8>*
  %65 = load <16 x i8>, <16 x i8>* %64, align 1, !tbaa !5
  %66 = getelementptr inbounds [100 x i8], [100 x i8]* %1, i64 0, i64 %58
  %67 = bitcast i8* %66 to <16 x i8>*
  store <16 x i8> %62, <16 x i8>* %67, align 1, !tbaa !5
  %68 = getelementptr inbounds i8, i8* %66, i64 16
  %69 = bitcast i8* %68 to <16 x i8>*
  store <16 x i8> %65, <16 x i8>* %69, align 1, !tbaa !5
  %70 = add nuw i64 %43, 64
  %71 = add i64 %44, -2
  %72 = icmp eq i64 %71, 0
  br i1 %72, label %73, label %42, !llvm.loop !8

73:                                               ; preds = %42, %33
  %74 = phi i64 [ 0, %33 ], [ %70, %42 ]
  %75 = icmp eq i64 %38, 0
  br i1 %75, label %89, label %76

76:                                               ; preds = %73
  %77 = add i64 %74, %15
  %78 = add nsw i64 %77, 1
  %79 = getelementptr inbounds [100 x i8], [100 x i8]* %1, i64 0, i64 %78
  %80 = bitcast i8* %79 to <16 x i8>*
  %81 = load <16 x i8>, <16 x i8>* %80, align 1, !tbaa !5
  %82 = getelementptr inbounds i8, i8* %79, i64 16
  %83 = bitcast i8* %82 to <16 x i8>*
  %84 = load <16 x i8>, <16 x i8>* %83, align 1, !tbaa !5
  %85 = getelementptr inbounds [100 x i8], [100 x i8]* %1, i64 0, i64 %77
  %86 = bitcast i8* %85 to <16 x i8>*
  store <16 x i8> %81, <16 x i8>* %86, align 1, !tbaa !5
  %87 = getelementptr inbounds i8, i8* %85, i64 16
  %88 = bitcast i8* %87 to <16 x i8>*
  store <16 x i8> %84, <16 x i8>* %88, align 1, !tbaa !5
  br label %89

89:                                               ; preds = %73, %76
  %90 = icmp eq i64 %29, %34
  br i1 %90, label %124, label %91

91:                                               ; preds = %89
  %92 = add nsw i64 %34, %15
  %93 = and i64 %29, 24
  %94 = icmp eq i64 %93, 0
  br i1 %94, label %115, label %95

95:                                               ; preds = %31, %91
  %96 = phi i64 [ %34, %91 ], [ 0, %31 ]
  %97 = sext i32 %12 to i64
  %98 = sext i32 %14 to i64
  %99 = sub nsw i64 %97, %98
  %100 = and i64 %99, -8
  %101 = add nsw i64 %100, %15
  br label %102

102:                                              ; preds = %102, %95
  %103 = phi i64 [ %96, %95 ], [ %111, %102 ]
  %104 = add i64 %103, %15
  %105 = add nsw i64 %104, 1
  %106 = getelementptr inbounds [100 x i8], [100 x i8]* %1, i64 0, i64 %105
  %107 = bitcast i8* %106 to <8 x i8>*
  %108 = load <8 x i8>, <8 x i8>* %107, align 1, !tbaa !5
  %109 = getelementptr inbounds [100 x i8], [100 x i8]* %1, i64 0, i64 %104
  %110 = bitcast i8* %109 to <8 x i8>*
  store <8 x i8> %108, <8 x i8>* %110, align 1, !tbaa !5
  %111 = add nuw i64 %103, 8
  %112 = icmp eq i64 %111, %100
  br i1 %112, label %113, label %102, !llvm.loop !11

113:                                              ; preds = %102
  %114 = icmp eq i64 %99, %100
  br i1 %114, label %124, label %115

115:                                              ; preds = %27, %91, %113
  %116 = phi i64 [ %15, %27 ], [ %92, %91 ], [ %101, %113 ]
  br label %117

117:                                              ; preds = %115, %117
  %118 = phi i64 [ %119, %117 ], [ %116, %115 ]
  %119 = add nsw i64 %118, 1
  %120 = getelementptr inbounds [100 x i8], [100 x i8]* %1, i64 0, i64 %119
  %121 = load i8, i8* %120, align 1, !tbaa !5
  %122 = getelementptr inbounds [100 x i8], [100 x i8]* %1, i64 0, i64 %118
  store i8 %121, i8* %122, align 1, !tbaa !5
  %123 = icmp eq i64 %119, %28
  br i1 %123, label %124, label %117, !llvm.loop !12

124:                                              ; preds = %117, %89, %113, %25, %11, %19
  %125 = phi i32 [ %14, %19 ], [ %14, %11 ], [ 0, %25 ], [ 0, %113 ], [ 0, %89 ], [ 0, %117 ]
  %126 = phi i32 [ %13, %19 ], [ %13, %11 ], [ %12, %25 ], [ %12, %113 ], [ %12, %89 ], [ %12, %117 ]
  %127 = add nsw i32 %125, 1
  %128 = add nsw i32 %126, -1
  %129 = icmp slt i32 %127, %128
  br i1 %129, label %11, label %130, !llvm.loop !14

130:                                              ; preds = %124, %0
  %131 = phi i32 [ %7, %0 ], [ %126, %124 ]
  %132 = sext i32 %131 to i64
  %133 = call i8* @strncpy(i8* noundef nonnull %4, i8* nonnull %3, i64 %132) #7
  %134 = call i32 (i8*, ...) @printf(i8* nonnull dereferenceable(1) getelementptr inbounds ([3 x i8], [3 x i8]* @.str, i64 0, i64 0), i8* nonnull %4)
  call void @llvm.lifetime.end.p0i8(i64 100, i8* nonnull %4) #7
  call void @llvm.lifetime.end.p0i8(i64 100, i8* nonnull %3) #7
  ret i32 0
}

; Function Attrs: argmemonly mustprogress nofree nosync nounwind willreturn
declare void @llvm.lifetime.start.p0i8(i64 immarg, i8* nocapture) #1

; Function Attrs: argmemonly mustprogress nofree nounwind willreturn writeonly
declare void @llvm.memset.p0i8.i64(i8* nocapture writeonly, i8, i64, i1 immarg) #2

declare i32 @gets(...) local_unnamed_addr #3

; Function Attrs: argmemonly mustprogress nofree nounwind readonly willreturn
declare i64 @strlen(i8* nocapture) local_unnamed_addr #4

; Function Attrs: argmemonly mustprogress nofree nounwind willreturn
declare i8* @strncpy(i8* noalias returned writeonly, i8* noalias nocapture readonly, i64) local_unnamed_addr #5

; Function Attrs: nofree nounwind
declare noundef i32 @printf(i8* nocapture noundef readonly, ...) local_unnamed_addr #6

; Function Attrs: argmemonly mustprogress nofree nosync nounwind willreturn
declare void @llvm.lifetime.end.p0i8(i64 immarg, i8* nocapture) #1


!llvm.module.flags = !{!0, !1, !2, !3}
!llvm.ident = !{!4}

!0 = !{i32 1, !"wchar_size", i32 4}
!1 = !{i32 7, !"PIC Level", i32 2}
!2 = !{i32 7, !"PIE Level", i32 2}
!3 = !{i32 7, !"uwtable", i32 1}
!4 = !{!"clang version 13.0.0"}
!5 = !{!6, !6, i64 0}
!6 = !{!"omnipotent char", !7, i64 0}
!7 = !{!"Simple C/C++ TBAA"}
!8 = distinct !{!8, !9, !10}
!9 = !{!"llvm.loop.mustprogress"}
!10 = !{!"llvm.loop.isvectorized", i32 1}
!11 = distinct !{!11, !9, !10}
!12 = distinct !{!12, !9, !13, !10}
!13 = !{!"llvm.loop.unroll.runtime.disable"}
!14 = distinct !{!14, !9}
